; Function Attrs: mustprogress null_pointer_is_valid sspstrong uwtable
define void @_ZN14SyntaxLineEdit12checkIntegerE7QString(ptr noundef align 8 dereferenceable_or_null(185) %0, ptr noundef readonly captures(none) %1) local_unnamed_addr #0 align 2 personality ptr @__gxx_personality_v0 {
  %3 = alloca i8, align 1
  %4 = alloca %class.QString, align 8
  %5 = getelementptr inbounds nuw i8, ptr %1, i64 16
  %6 = load i64, ptr %5, align 8
  %7 = icmp eq i64 %6, 0
  br i1 %7, label %8, label %9

8:                                                ; preds = %2
  tail call void @_ZN14SyntaxLineEdit14setSyntaxStateENS_11SyntaxStateE(ptr noundef align 8 dereferenceable_or_null(185) %0, i32 noundef 0)
  br label %29

9:                                                ; preds = %2
  call void @llvm.lifetime.start.p0(i64 1, ptr nonnull %3) #19
  call void @llvm.lifetime.start.p0(i64 24, ptr nonnull %4) #19
  call void @_ZNK9QLineEdit4textEv(ptr dead_on_unwind nonnull writable sret(%class.QString) align 8 %4, ptr noundef align 8 dereferenceable_or_null(40) %0)
  %10 = getelementptr inbounds nuw i8, ptr %4, i64 8
  %11 = load ptr, ptr %10, align 8
  %12 = getelementptr inbounds nuw i8, ptr %4, i64 16
  %13 = load i64, ptr %12, align 8
  %14 = invoke noundef i64 @_ZN7QString17toIntegral_helperE11QStringViewPbi(i64 %13, ptr %11, ptr noundef nonnull %3, i32 noundef 10)
          to label %.noexc unwind label %23

.noexc:                                           ; preds = %9
  %15 = add i64 %14, 2147483648
  %.not.i.i = icmp ult i64 %15, 4294967296
  br i1 %.not.i.i, label %_ZNK7QString5toIntEPbi.exit, label %16

16:                                               ; preds = %.noexc
  store i8 0, ptr %3, align 1
  br label %_ZNK7QString5toIntEPbi.exit

_ZNK7QString5toIntEPbi.exit:                      ; preds = %16, %.noexc
  %17 = load ptr, ptr %4, align 8
  %.not.i.i.i = icmp eq ptr %17, null
  br i1 %.not.i.i.i, label %_ZN7QStringD2Ev.exit, label %_ZN17QArrayDataPointerIDsE5derefEv.exit.i.i

_ZN17QArrayDataPointerIDsE5derefEv.exit.i.i:      ; preds = %_ZNK7QString5toIntEPbi.exit
  %18 = atomicrmw sub ptr %17, i32 1 seq_cst, align 4
  %.not.i.i2 = icmp eq i32 %18, 1
  br i1 %.not.i.i2, label %19, label %_ZN7QStringD2Ev.exit

19:                                               ; preds = %_ZN17QArrayDataPointerIDsE5derefEv.exit.i.i
  %20 = load ptr, ptr %4, align 8
  call void @_ZN10QArrayData10deallocateEPS_xx(ptr noundef %20, i64 noundef 2, i64 noundef 8) #19
  br label %_ZN7QStringD2Ev.exit

_ZN7QStringD2Ev.exit:                             ; preds = %_ZNK7QString5toIntEPbi.exit, %_ZN17QArrayDataPointerIDsE5derefEv.exit.i.i, %19
  call void @llvm.lifetime.end.p0(i64 24, ptr nonnull %4) #19
  %21 = load i8, ptr %3, align 1, !range !12, !noundef !13
  %22 = trunc nuw i8 %21 to i1
  %. = select i1 %22, i32 4, i32 2
  call void @_ZN14SyntaxLineEdit14setSyntaxStateENS_11SyntaxStateE(ptr noundef align 8 dereferenceable_or_null(185) %0, i32 noundef %.)
  call void @llvm.lifetime.end.p0(i64 1, ptr nonnull %3) #19
  br label %29

23:                                               ; preds = %9
  %24 = landingpad { ptr, i32 }
          cleanup
  %25 = load ptr, ptr %4, align 8
  %.not.i.i.i3 = icmp eq ptr %25, null
  br i1 %.not.i.i.i3, label %_ZN7QStringD2Ev.exit6, label %_ZN17QArrayDataPointerIDsE5derefEv.exit.i.i4

_ZN17QArrayDataPointerIDsE5derefEv.exit.i.i4:     ; preds = %23
  %26 = atomicrmw sub ptr %25, i32 1 seq_cst, align 4
  %.not.i.i5 = icmp eq i32 %26, 1
  br i1 %.not.i.i5, label %27, label %_ZN7QStringD2Ev.exit6

27:                                               ; preds = %_ZN17QArrayDataPointerIDsE5derefEv.exit.i.i4
  %28 = load ptr, ptr %4, align 8
  call void @_ZN10QArrayData10deallocateEPS_xx(ptr noundef %28, i64 noundef 2, i64 noundef 8) #19
  br label %_ZN7QStringD2Ev.exit6

_ZN7QStringD2Ev.exit6:                            ; preds = %23, %_ZN17QArrayDataPointerIDsE5derefEv.exit.i.i4, %27
  call void @llvm.lifetime.end.p0(i64 24, ptr nonnull %4) #19
  call void @llvm.lifetime.end.p0(i64 1, ptr nonnull %3) #19
  resume { ptr, i32 } %24

29:                                               ; preds = %_ZN7QStringD2Ev.exit, %8
  ret void
}